(dp0
Vparanames
p1
VSheet Number,-,Sheet Name
p2
sVprintfilepath
p3
VC:\u005cUsers\u005cTill\u005cDesktop\u005cRevitPRINT
p4
sVoutput
p5
I01
sVpdfexport
p6
I01
sVprintername
p7
VPDFCreatorRevit
p8
sVdwgexport
p9
I01
s.