(dp0
Vprintername
p1
VPDFCreatorRevit
p2
sVprintername
p3
VPDFCreator
p4
sVpdfexport
p5
I1
sVprintfilepath
p6
VC:\u005cUsers\u005ctill_laptop\u005cDesktop\u005cRevitPrint
p7
sVoutput
p8
I01
sVoutput
p9
I0
sVdwgexport
p10
I1
sVpdfexport
p11
I00
sVdwgexport
p12
I01
sVprintfilepath
p13
VC:\u005cUsers\u005ctb_y530\u005cdesktop
p14
s.